target datalayout = "e-m:e-p270:32:32-p271:32:32-p272:64:64-i64:64-i128:128-f80:128-n8:16:32:64-S128"
target triple = "x86_64-pc-linux-gnu"

%struct.evp_pkey_st = type { i32, i32, ptr, ptr, ptr, %union.legacy_pkey_st, %union.legacy_pkey_st, %struct.CRYPTO_REF_COUNT, ptr, ptr, i32, i8, %struct.crypto_ex_data_st, ptr, ptr, i64, ptr, i64, %struct.anon }
%union.legacy_pkey_st = type { ptr }
%struct.CRYPTO_REF_COUNT = type { i32 }
%struct.crypto_ex_data_st = type { ptr, ptr }
%struct.anon = type { i32, i32, i32 }

@.str = private unnamed_addr constant [30 x i8] c"../openssl/crypto/evp/p_lib.c\00", align 1

; Function Attrs: inlinehint nounwind uwtable
define internal ptr @ossl_check_X509_ATTRIBUTE_freefunc_type(ptr noundef %0) #3 {
  %2 = alloca ptr, align 8
  store ptr %0, ptr %2, align 8, !tbaa !31
  %3 = load ptr, ptr %2, align 8, !tbaa !31
  ret ptr %3
}

; Function Attrs: inlinehint nounwind uwtable
define internal ptr @ossl_check_X509_ATTRIBUTE_sk_type(ptr noundef %0) #3 {
  %2 = alloca ptr, align 8
  store ptr %0, ptr %2, align 8, !tbaa !140
  %3 = load ptr, ptr %2, align 8, !tbaa !140
  ret ptr %3
}

; Function Attrs: inlinehint nounwind uwtable
define internal void @CRYPTO_FREE_REF(ptr noundef %0) #3 {
  %2 = alloca ptr, align 8
  store ptr %0, ptr %2, align 8, !tbaa !31
  ret void
}

; Function Attrs: inlinehint nounwind uwtable
define internal i32 @CRYPTO_DOWN_REF(ptr noundef %0, ptr noundef %1) #3 {
  %3 = alloca ptr, align 8
  %4 = alloca ptr, align 8
  %5 = alloca i32, align 4
  %6 = alloca i32, align 4
  store ptr %0, ptr %3, align 8, !tbaa !31
  store ptr %1, ptr %4, align 8, !tbaa !129
  %7 = load ptr, ptr %3, align 8, !tbaa !31
  %8 = getelementptr inbounds nuw %struct.CRYPTO_REF_COUNT, ptr %7, i32 0, i32 0
  store i32 1, ptr %5, align 4, !tbaa !8
  %9 = load i32, ptr %5, align 4
  %10 = atomicrmw sub ptr %8, i32 %9 release, align 4
  store i32 %10, ptr %6, align 4
  %11 = load i32, ptr %6, align 4, !tbaa !8
  %12 = sub nsw i32 %11, 1
  %13 = load ptr, ptr %4, align 8, !tbaa !129
  store i32 %12, ptr %13, align 4, !tbaa !8
  %14 = load ptr, ptr %4, align 8, !tbaa !129
  %15 = load i32, ptr %14, align 4, !tbaa !8
  %16 = icmp eq i32 %15, 0
  br i1 %16, label %17, label %18

17:                                               ; preds = %2
  fence acquire
  br label %18

18:                                               ; preds = %17, %2
  ret i32 1
}

; Function Attrs: nounwind uwtable
define void @EVP_PKEY_free(ptr noundef %0) #0 {
  %2 = alloca ptr, align 8
  %3 = alloca i32, align 4
  %4 = alloca i32, align 4
  store ptr %0, ptr %2, align 8, !tbaa !3
  call void @llvm.lifetime.start.p0(i64 4, ptr %3) #8
  %5 = load ptr, ptr %2, align 8, !tbaa !3
  %6 = icmp eq ptr %5, null
  br i1 %6, label %7, label %8

7:                                                ; preds = %1
  store i32 1, ptr %4, align 4
  br label %31

8:                                                ; preds = %1
  %9 = load ptr, ptr %2, align 8, !tbaa !3
  %10 = getelementptr inbounds nuw %struct.evp_pkey_st, ptr %9, i32 0, i32 7
  %11 = call i32 @CRYPTO_DOWN_REF(ptr noundef %10, ptr noundef %3)
  %12 = load i32, ptr %3, align 4, !tbaa !8
  %13 = icmp sgt i32 %12, 0
  br i1 %13, label %14, label %15

14:                                               ; preds = %8
  store i32 1, ptr %4, align 4
  br label %31

15:                                               ; preds = %8
  %16 = load ptr, ptr %2, align 8, !tbaa !3
  call void @evp_pkey_free_it(ptr noundef %16)
  %17 = load ptr, ptr %2, align 8, !tbaa !3
  %18 = load ptr, ptr %2, align 8, !tbaa !3
  %19 = getelementptr inbounds nuw %struct.evp_pkey_st, ptr %18, i32 0, i32 12
  call void @CRYPTO_free_ex_data(i32 noundef 17, ptr noundef %17, ptr noundef %19)
  %20 = load ptr, ptr %2, align 8, !tbaa !3
  %21 = getelementptr inbounds nuw %struct.evp_pkey_st, ptr %20, i32 0, i32 8
  %22 = load ptr, ptr %21, align 8, !tbaa !60
  call void @CRYPTO_THREAD_lock_free(ptr noundef %22)
  %23 = load ptr, ptr %2, align 8, !tbaa !3
  %24 = getelementptr inbounds nuw %struct.evp_pkey_st, ptr %23, i32 0, i32 7
  call void @CRYPTO_FREE_REF(ptr noundef %24)
  %25 = load ptr, ptr %2, align 8, !tbaa !3
  %26 = getelementptr inbounds nuw %struct.evp_pkey_st, ptr %25, i32 0, i32 9
  %27 = load ptr, ptr %26, align 8, !tbaa !65
  %28 = call ptr @ossl_check_X509_ATTRIBUTE_sk_type(ptr noundef %27)
  %29 = call ptr @ossl_check_X509_ATTRIBUTE_freefunc_type(ptr noundef @X509_ATTRIBUTE_free)
  call void @OPENSSL_sk_pop_free(ptr noundef %28, ptr noundef %29)
  %30 = load ptr, ptr %2, align 8, !tbaa !3
  call void @CRYPTO_free(ptr noundef %30, ptr noundef @.str, i32 noundef 1853)
  store i32 0, ptr %4, align 4
  br label %31

31:                                               ; preds = %15, %14, %7
  call void @llvm.lifetime.end.p0(i64 4, ptr %3) #8
  %32 = load i32, ptr %4, align 4
  switch i32 %32, label %34 [
    i32 0, label %33
    i32 1, label %33
  ]

33:                                               ; preds = %31, %31
  ret void

34:                                               ; preds = %31
  unreachable
}

; Function Attrs: nounwind uwtable
define ptr @evp_pkey_get_legacy(ptr noundef %0) #0 {
  %2 = alloca ptr, align 8
  %3 = alloca ptr, align 8
  %4 = alloca ptr, align 8
  %5 = alloca ptr, align 8
  %6 = alloca i32, align 4
  store ptr %0, ptr %3, align 8, !tbaa !3
  call void @llvm.lifetime.start.p0(i64 8, ptr %4) #8
  store ptr null, ptr %4, align 8, !tbaa !3
  call void @llvm.lifetime.start.p0(i64 8, ptr %5) #8
  store ptr null, ptr %5, align 8, !tbaa !31
  %7 = load ptr, ptr %3, align 8, !tbaa !3
  %8 = icmp ne ptr %7, null
  %9 = zext i1 %8 to i32
  %10 = icmp ne i32 %9, 0
  %11 = xor i1 %10, true
  %12 = xor i1 %11, true
  %13 = zext i1 %12 to i32
  %14 = sext i32 %13 to i64
  %15 = call i64 @llvm.expect.i64(i64 %14, i64 1)
  %16 = icmp ne i64 %15, 0
  br i1 %16, label %18, label %17

17:                                               ; preds = %1
  store ptr null, ptr %2, align 8
  store i32 1, ptr %6, align 4
  br label %97

18:                                               ; preds = %1
  %19 = load ptr, ptr %3, align 8, !tbaa !3
  %20 = getelementptr inbounds nuw %struct.evp_pkey_st, ptr %19, i32 0, i32 5
  %21 = load ptr, ptr %20, align 8, !tbaa !38
  %22 = icmp ne ptr %21, null
  br i1 %22, label %29, label %23

23:                                               ; preds = %18
  %24 = load ptr, ptr %3, align 8, !tbaa !3
  %25 = getelementptr inbounds nuw %struct.evp_pkey_st, ptr %24, i32 0, i32 14
  %26 = load ptr, ptr %25, align 8, !tbaa !33
  %27 = icmp ne ptr %26, null
  br i1 %27, label %29, label %28

28:                                               ; preds = %23
  store ptr null, ptr %2, align 8
  store i32 1, ptr %6, align 4
  br label %97

29:                                               ; preds = %23, %18
  %30 = load ptr, ptr %3, align 8, !tbaa !3
  %31 = getelementptr inbounds nuw %struct.evp_pkey_st, ptr %30, i32 0, i32 13
  %32 = load ptr, ptr %31, align 8, !tbaa !32
  %33 = icmp ne ptr %32, null
  br i1 %33, label %38, label %34

34:                                               ; preds = %29
  %35 = load ptr, ptr %3, align 8, !tbaa !3
  %36 = getelementptr inbounds nuw %struct.evp_pkey_st, ptr %35, i32 0, i32 5
  %37 = load ptr, ptr %36, align 8, !tbaa !38
  store ptr %37, ptr %2, align 8
  store i32 1, ptr %6, align 4
  br label %97

38:                                               ; preds = %29
  %39 = load ptr, ptr %3, align 8, !tbaa !3
  %40 = getelementptr inbounds nuw %struct.evp_pkey_st, ptr %39, i32 0, i32 8
  %41 = load ptr, ptr %40, align 8, !tbaa !60
  %42 = call i32 @CRYPTO_THREAD_read_lock(ptr noundef %41)
  %43 = icmp ne i32 %42, 0
  br i1 %43, label %45, label %44

44:                                               ; preds = %38
  store ptr null, ptr %2, align 8
  store i32 1, ptr %6, align 4
  br label %97

45:                                               ; preds = %38
  %46 = load ptr, ptr %3, align 8, !tbaa !3
  %47 = getelementptr inbounds nuw %struct.evp_pkey_st, ptr %46, i32 0, i32 6
  %48 = load ptr, ptr %47, align 8, !tbaa !38
  store ptr %48, ptr %5, align 8, !tbaa !31
  %49 = load ptr, ptr %3, align 8, !tbaa !3
  %50 = getelementptr inbounds nuw %struct.evp_pkey_st, ptr %49, i32 0, i32 8
  %51 = load ptr, ptr %50, align 8, !tbaa !60
  %52 = call i32 @CRYPTO_THREAD_unlock(ptr noundef %51)
  %53 = icmp ne i32 %52, 0
  br i1 %53, label %55, label %54

54:                                               ; preds = %45
  store ptr null, ptr %2, align 8
  store i32 1, ptr %6, align 4
  br label %97

55:                                               ; preds = %45
  %56 = load ptr, ptr %5, align 8, !tbaa !31
  %57 = icmp ne ptr %56, null
  br i1 %57, label %58, label %60

58:                                               ; preds = %55
  %59 = load ptr, ptr %5, align 8, !tbaa !31
  store ptr %59, ptr %2, align 8
  store i32 1, ptr %6, align 4
  br label %97

60:                                               ; preds = %55
  %61 = load ptr, ptr %3, align 8, !tbaa !3
  %62 = call i32 @evp_pkey_copy_downgraded(ptr noundef %4, ptr noundef %61)
  %63 = icmp ne i32 %62, 0
  br i1 %63, label %65, label %64

64:                                               ; preds = %60
  br label %94

65:                                               ; preds = %60
  %66 = load ptr, ptr %3, align 8, !tbaa !3
  %67 = getelementptr inbounds nuw %struct.evp_pkey_st, ptr %66, i32 0, i32 8
  %68 = load ptr, ptr %67, align 8, !tbaa !60
  %69 = call i32 @CRYPTO_THREAD_write_lock(ptr noundef %68)
  %70 = icmp ne i32 %69, 0
  br i1 %70, label %72, label %71

71:                                               ; preds = %65
  br label %94

72:                                               ; preds = %65
  %73 = load ptr, ptr %3, align 8, !tbaa !3
  %74 = getelementptr inbounds nuw %struct.evp_pkey_st, ptr %73, i32 0, i32 6
  %75 = load ptr, ptr %74, align 8, !tbaa !38
  store ptr %75, ptr %5, align 8, !tbaa !31
  %76 = load ptr, ptr %5, align 8, !tbaa !31
  %77 = icmp eq ptr %76, null
  br i1 %77, label %78, label %86

78:                                               ; preds = %72
  %79 = load ptr, ptr %4, align 8, !tbaa !3
  %80 = getelementptr inbounds nuw %struct.evp_pkey_st, ptr %79, i32 0, i32 5
  %81 = load ptr, ptr %80, align 8, !tbaa !38
  %82 = load ptr, ptr %3, align 8, !tbaa !3
  %83 = getelementptr inbounds nuw %struct.evp_pkey_st, ptr %82, i32 0, i32 6
  store ptr %81, ptr %83, align 8, !tbaa !38
  store ptr %81, ptr %5, align 8, !tbaa !31
  %84 = load ptr, ptr %4, align 8, !tbaa !3
  %85 = getelementptr inbounds nuw %struct.evp_pkey_st, ptr %84, i32 0, i32 5
  store ptr null, ptr %85, align 8, !tbaa !38
  br label %86

86:                                               ; preds = %78, %72
  %87 = load ptr, ptr %3, align 8, !tbaa !3
  %88 = getelementptr inbounds nuw %struct.evp_pkey_st, ptr %87, i32 0, i32 8
  %89 = load ptr, ptr %88, align 8, !tbaa !60
  %90 = call i32 @CRYPTO_THREAD_unlock(ptr noundef %89)
  %91 = icmp ne i32 %90, 0
  br i1 %91, label %93, label %92

92:                                               ; preds = %86
  store ptr null, ptr %5, align 8, !tbaa !31
  br label %94

93:                                               ; preds = %86
  br label %94

94:                                               ; preds = %93, %92, %71, %64
  %95 = load ptr, ptr %4, align 8, !tbaa !3
  call void @EVP_PKEY_free(ptr noundef %95)
  %96 = load ptr, ptr %5, align 8, !tbaa !31
  store ptr %96, ptr %2, align 8
  store i32 1, ptr %6, align 4
  br label %97

97:                                               ; preds = %94, %58, %54, %44, %34, %28, %17
  call void @llvm.lifetime.end.p0(i64 8, ptr %5) #8
  call void @llvm.lifetime.end.p0(i64 8, ptr %4) #8
  %98 = load ptr, ptr %2, align 8
  ret ptr %98
}