; Function Attrs: nounwind uwtable
define ptr @evp_pkey_get_legacy(ptr noundef captures(address_is_null) %0) local_unnamed_addr #0 {
  %2 = alloca ptr, align 8
  call void @llvm.lifetime.start.p0(i64 8, ptr nonnull %2) #12
  store ptr null, ptr %2, align 8, !tbaa !28
  %.not = icmp eq ptr %0, null
  br i1 %.not, label %EVP_PKEY_free.exit, label %3, !prof !38

3:                                                ; preds = %1
  %4 = getelementptr inbounds nuw i8, ptr %0, i64 32
  %5 = load ptr, ptr %4, align 8, !tbaa !39
  %.not23 = icmp eq ptr %5, null
  br i1 %.not23, label %6, label %9

6:                                                ; preds = %3
  %7 = getelementptr inbounds nuw i8, ptr %0, i64 104
  %8 = load ptr, ptr %7, align 8, !tbaa !33
  %.not24 = icmp eq ptr %8, null
  br i1 %.not24, label %EVP_PKEY_free.exit, label %9

9:                                                ; preds = %6, %3
  %10 = getelementptr inbounds nuw i8, ptr %0, i64 96
  %11 = load ptr, ptr %10, align 8, !tbaa !30
  %.not25 = icmp eq ptr %11, null
  br i1 %.not25, label %EVP_PKEY_free.exit, label %12

12:                                               ; preds = %9
  %13 = getelementptr inbounds nuw i8, ptr %0, i64 56
  %14 = load ptr, ptr %13, align 8, !tbaa !36
  %15 = tail call i32 @CRYPTO_THREAD_read_lock(ptr noundef %14) #12
  %.not26 = icmp eq i32 %15, 0
  br i1 %.not26, label %EVP_PKEY_free.exit, label %16

16:                                               ; preds = %12
  %17 = getelementptr inbounds nuw i8, ptr %0, i64 40
  %18 = load ptr, ptr %17, align 8, !tbaa !39
  %19 = load ptr, ptr %13, align 8, !tbaa !36
  %20 = tail call i32 @CRYPTO_THREAD_unlock(ptr noundef %19) #12
  %.not27 = icmp eq i32 %20, 0
  br i1 %.not27, label %EVP_PKEY_free.exit, label %21

21:                                               ; preds = %16
  %.not28 = icmp eq ptr %18, null
  br i1 %.not28, label %22, label %EVP_PKEY_free.exit

22:                                               ; preds = %21
  %23 = call i32 @evp_pkey_copy_downgraded(ptr noundef nonnull %2, ptr noundef nonnull %0)
  %.not29 = icmp eq i32 %23, 0
  br i1 %.not29, label %37, label %24

24:                                               ; preds = %22
  %25 = load ptr, ptr %13, align 8, !tbaa !36
  %26 = call i32 @CRYPTO_THREAD_write_lock(ptr noundef %25) #12
  %.not30 = icmp eq i32 %26, 0
  br i1 %.not30, label %37, label %27

27:                                               ; preds = %24
  %28 = load ptr, ptr %17, align 8, !tbaa !39
  %29 = icmp eq ptr %28, null
  br i1 %29, label %30, label %34

30:                                               ; preds = %27
  %31 = load ptr, ptr %2, align 8, !tbaa !28
  %32 = getelementptr inbounds nuw i8, ptr %31, i64 32
  %33 = load ptr, ptr %32, align 8, !tbaa !39
  store ptr %33, ptr %17, align 8, !tbaa !39
  store ptr null, ptr %32, align 8, !tbaa !39
  br label %34

34:                                               ; preds = %30, %27
  %.1 = phi ptr [ %33, %30 ], [ %28, %27 ]
  %35 = load ptr, ptr %13, align 8, !tbaa !36
  %36 = call i32 @CRYPTO_THREAD_unlock(ptr noundef %35) #12
  %.not31 = icmp eq i32 %36, 0
  %spec.select = select i1 %.not31, ptr null, ptr %.1
  br label %37

37:                                               ; preds = %34, %24, %22
  %.0 = phi ptr [ null, %24 ], [ null, %22 ], [ %spec.select, %34 ]
  %38 = load ptr, ptr %2, align 8, !tbaa !28
  %39 = icmp eq ptr %38, null
  br i1 %39, label %EVP_PKEY_free.exit, label %40

40:                                               ; preds = %37
  %41 = getelementptr inbounds nuw i8, ptr %38, i64 48
  %42 = atomicrmw sub ptr %41, i32 1 release, align 4
  %43 = icmp eq i32 %42, 1
  br i1 %43, label %CRYPTO_DOWN_REF.exit.thread.i, label %CRYPTO_DOWN_REF.exit.i

CRYPTO_DOWN_REF.exit.thread.i:                    ; preds = %40
  fence acquire
  br label %45

CRYPTO_DOWN_REF.exit.i:                           ; preds = %40
  %44 = icmp sgt i32 %42, 1
  br i1 %44, label %EVP_PKEY_free.exit, label %45

45:                                               ; preds = %CRYPTO_DOWN_REF.exit.i, %CRYPTO_DOWN_REF.exit.thread.i
  call fastcc void @evp_pkey_free_it(ptr noundef %38)
  %46 = getelementptr inbounds nuw i8, ptr %38, i64 80
  call void @CRYPTO_free_ex_data(i32 noundef 17, ptr noundef nonnull %38, ptr noundef nonnull %46) #12
  %47 = getelementptr inbounds nuw i8, ptr %38, i64 56
  %48 = load ptr, ptr %47, align 8, !tbaa !36
  call void @CRYPTO_THREAD_lock_free(ptr noundef %48) #12
  %49 = getelementptr inbounds nuw i8, ptr %38, i64 64
  %50 = load ptr, ptr %49, align 8, !tbaa !37
  call void @OPENSSL_sk_pop_free(ptr noundef %50, ptr noundef nonnull @X509_ATTRIBUTE_free) #12
  call void @CRYPTO_free(ptr noundef nonnull %38, ptr noundef nonnull @.str, i32 noundef 1853) #12
  br label %EVP_PKEY_free.exit

EVP_PKEY_free.exit:                               ; preds = %45, %CRYPTO_DOWN_REF.exit.i, %37, %9, %21, %16, %12, %6, %1
  %.018 = phi ptr [ null, %1 ], [ null, %6 ], [ null, %12 ], [ null, %16 ], [ %18, %21 ], [ %5, %9 ], [ %.0, %37 ], [ %.0, %CRYPTO_DOWN_REF.exit.i ], [ %.0, %45 ]
  call void @llvm.lifetime.end.p0(i64 8, ptr nonnull %2) #12
  ret ptr %.018
}